
main.elf:     file format elf32-littleriscv


Disassembly of section .text:

10000000 <image_def>:
10000000:	ffffded3          	.insn	4, 0xffffded3
10000004:	0142                	slli	sp,sp,0x10
10000006:	1101                	addi	sp,sp,-32
10000008:	0344                	addi	s1,sp,388
1000000a:	0000                	unimp
1000000c:	0020                	addi	s0,sp,8
1000000e:	1000                	addi	s0,sp,32
10000010:	1000                	addi	s0,sp,32
10000012:	2000                	.insn	2, 0x2000
10000014:	04ff 0000 0000 0000 	.insn	10, 0x357900000000000004ff
1000001c:	3579 
1000001e:	ab12                	.insn	2, 0xab12

10000020 <_start>:
10000020:	10001117          	auipc	sp,0x10001
10000024:	fe010113          	addi	sp,sp,-32 # 20001000 <_stack_top>
10000028:	0da000ef          	jal	10000102 <led_init>
1000002c:	13c000ef          	jal	10000168 <button_init>
10000030:	848a                	mv	s1,sp
10000032:	4481                	li	s1,0

10000034 <loop>:
10000034:	8522                	mv	a0,s0
10000036:	85a6                	mv	a1,s1
10000038:	2809                	jal	1000004a <print_led1>
1000003a:	14a000ef          	jal	10000184 <button_press>
1000003e:	0485                	addi	s1,s1,1
10000040:	42fd                	li	t0,31
10000042:	0092c363          	blt	t0,s1,10000048 <halt>
10000046:	b7fd                	j	10000034 <loop>

10000048 <halt>:
10000048:	a001                	j	10000048 <halt>

1000004a <print_led1>:
1000004a:	1141                	addi	sp,sp,-16
1000004c:	c606                	sw	ra,12(sp)
1000004e:	4305                	li	t1,1
10000050:	00b312b3          	sll	t0,t1,a1
10000054:	005573b3          	and	t2,a0,t0
10000058:	00703e33          	snez	t3,t2
1000005c:	8572                	mv	a0,t3
1000005e:	0d2000ef          	jal	10000130 <led_set>
10000062:	40b2                	lw	ra,12(sp)
10000064:	0141                	addi	sp,sp,16
10000066:	8082                	ret
	...

10000102 <led_init>:
10000102:	400282b7          	lui	t0,0x40028
10000106:	0cc28293          	addi	t0,t0,204 # 400280cc <GPIO25_CTRL>
1000010a:	4315                	li	t1,5
1000010c:	0062a023          	sw	t1,0(t0)
10000110:	400382b7          	lui	t0,0x40038
10000114:	06828293          	addi	t0,t0,104 # 40038068 <PAD_GPIO25>
10000118:	4359                	li	t1,22
1000011a:	0062a023          	sw	t1,0(t0)
1000011e:	d00002b7          	lui	t0,0xd0000
10000122:	03828293          	addi	t0,t0,56 # d0000038 <GPIO_OE_SET>
10000126:	02000337          	lui	t1,0x2000
1000012a:	0062a023          	sw	t1,0(t0)
1000012e:	8082                	ret

10000130 <led_set>:
10000130:	c911                	beqz	a0,10000144 <led_off>
10000132:	a009                	j	10000134 <led_on>

10000134 <led_on>:
10000134:	d00002b7          	lui	t0,0xd0000
10000138:	02e1                	addi	t0,t0,24 # d0000018 <GPIO_OUT_SET>
1000013a:	02000337          	lui	t1,0x2000
1000013e:	0062a023          	sw	t1,0(t0)
10000142:	8082                	ret

10000144 <led_off>:
10000144:	d00002b7          	lui	t0,0xd0000
10000148:	02028293          	addi	t0,t0,32 # d0000020 <GPIO_OUT_CLR>
1000014c:	02000337          	lui	t1,0x2000
10000150:	0062a023          	sw	t1,0(t0)
10000154:	8082                	ret

10000156 <led_toggle>:
10000156:	d00002b7          	lui	t0,0xd0000
1000015a:	02828293          	addi	t0,t0,40 # d0000028 <GPIO_OUT_XOR>
1000015e:	02000337          	lui	t1,0x2000
10000162:	0062a023          	sw	t1,0(t0)
10000166:	8082                	ret

10000168 <button_init>:
10000168:	400282b7          	lui	t0,0x40028
1000016c:	0291                	addi	t0,t0,4 # 40028004 <GPIO00_CTRL>
1000016e:	4315                	li	t1,5
10000170:	0062a023          	sw	t1,0(t0)
10000174:	400382b7          	lui	t0,0x40038
10000178:	0291                	addi	t0,t0,4 # 40038004 <PAD_GPIO0>
1000017a:	0cb00313          	li	t1,203
1000017e:	0062a023          	sw	t1,0(t0)
10000182:	8082                	ret

10000184 <button_press>:
10000184:	1141                	addi	sp,sp,-16
10000186:	c606                	sw	ra,12(sp)

10000188 <wait_1>:
10000188:	d00002b7          	lui	t0,0xd0000
1000018c:	0291                	addi	t0,t0,4 # d0000004 <GPIO_IN>
1000018e:	0002a303          	lw	t1,0(t0)
10000192:	00137313          	andi	t1,t1,1
10000196:	fe0309e3          	beqz	t1,10000188 <wait_1>
1000019a:	2831                	jal	100001b6 <delay>

1000019c <wait_0>:
1000019c:	d00002b7          	lui	t0,0xd0000
100001a0:	0291                	addi	t0,t0,4 # d0000004 <GPIO_IN>
100001a2:	0002a303          	lw	t1,0(t0)
100001a6:	00137313          	andi	t1,t1,1
100001aa:	fe0319e3          	bnez	t1,1000019c <wait_0>
100001ae:	2021                	jal	100001b6 <delay>
100001b0:	40b2                	lw	ra,12(sp)
100001b2:	0141                	addi	sp,sp,16
100001b4:	8082                	ret

100001b6 <delay>:
100001b6:	62c1                	lui	t0,0x10
100001b8:	12fd                	addi	t0,t0,-1 # ffff <FUNC_NULL+0xffe0>

100001ba <delay_loop>:
100001ba:	00028463          	beqz	t0,100001c2 <delay_end_loop>
100001be:	12fd                	addi	t0,t0,-1
100001c0:	bfed                	j	100001ba <delay_loop>

100001c2 <delay_end_loop>:
100001c2:	8082                	ret
