
main.elf:     file format elf32-littleriscv


Disassembly of section TEXT:

10000000 <__flash_ini>:
10000000:	0610006f          	j	10000860 <AllExceptionsHandler>
10000004:	0590006f          	j	1000085c <Isr_UndefinedHandler>
10000008:	0550006f          	j	1000085c <Isr_UndefinedHandler>
1000000c:	0590006f          	j	10000864 <Isr_MachineSoftwareInterrupt>
10000010:	04d0006f          	j	1000085c <Isr_UndefinedHandler>
10000014:	0490006f          	j	1000085c <Isr_UndefinedHandler>
10000018:	0450006f          	j	1000085c <Isr_UndefinedHandler>
1000001c:	78c0006f          	j	100007a8 <Isr_MachineTimerInterrupt>
10000020:	03d0006f          	j	1000085c <Isr_UndefinedHandler>
10000024:	0390006f          	j	1000085c <Isr_UndefinedHandler>
10000028:	0350006f          	j	1000085c <Isr_UndefinedHandler>
1000002c:	03d0006f          	j	10000868 <Isr_MachineExternalInterrupt>
10000030:	ffffded3          	.insn	4, 0xffffded3
10000034:	0142                	.insn	2, 0x0142
10000036:	1101                	.insn	2, 0x1101
10000038:	0344                	.insn	2, 0x0344
1000003a:	0000                	.insn	2, 0x
1000003c:	0050                	.insn	2, 0x0050
1000003e:	1000                	.insn	2, 0x1000
10000040:	1000                	.insn	2, 0x1000
10000042:	2000                	.insn	2, 0x2000
10000044:	04ff 0000 0000 0000 	.insn	10, 0x357900000000000004ff
1000004c:	3579 
1000004e:	ab12                	.insn	2, 0xab12

10000050 <_start>:
10000050:	ff700293          	li	t0,-9
10000054:	3002b073          	csrc	mstatus,t0
10000058:	30401073          	csrw	mie,zero
1000005c:	10001117          	auipc	sp,0x10001
10000060:	fa410113          	addi	sp,sp,-92 # 20001000 <__stack_top>
10000064:	00000297          	auipc	t0,0x0
10000068:	f9c28293          	addi	t0,t0,-100 # 10000000 <__flash_ini>
1000006c:	00128293          	addi	t0,t0,1
10000070:	30529073          	csrw	mtvec,t0
10000074:	004000ef          	jal	10000078 <Startup_Init>

10000078 <Startup_Init>:
10000078:	0f4000ef          	jal	1000016c <Startup_InitCore>
1000007c:	218000ef          	jal	10000294 <Startup_InitSystemClock>
10000080:	4a8000ef          	jal	10000528 <Startup_InitRam>
10000084:	6bc000ef          	jal	10000740 <Startup_InitCtors>
10000088:	008000ef          	jal	10000090 <main>
1000008c:	0000006f          	j	1000008c <Startup_Init+0x14>

10000090 <main>:
10000090:	d00007b7          	lui	a5,0xd0000
10000094:	0407a683          	lw	a3,64(a5) # d0000040 <__stack_top+0xaffff040>
10000098:	d00007b7          	lui	a5,0xd0000
1000009c:	02000737          	lui	a4,0x2000
100000a0:	00e6e733          	or	a4,a3,a4
100000a4:	04e7a023          	sw	a4,64(a5) # d0000040 <__stack_top+0xaffff040>
100000a8:	d00007b7          	lui	a5,0xd0000
100000ac:	0207a683          	lw	a3,32(a5) # d0000020 <__stack_top+0xaffff020>
100000b0:	d00007b7          	lui	a5,0xd0000
100000b4:	02000737          	lui	a4,0x2000
100000b8:	00e6e733          	or	a4,a3,a4
100000bc:	02e7a023          	sw	a4,32(a5) # d0000020 <__stack_top+0xaffff020>
100000c0:	400287b7          	lui	a5,0x40028
100000c4:	0cc7a703          	lw	a4,204(a5) # 400280cc <__stack_top+0x200270cc>
100000c8:	fe077713          	andi	a4,a4,-32
100000cc:	00576713          	ori	a4,a4,5
100000d0:	0ce7a623          	sw	a4,204(a5)
100000d4:	d00007b7          	lui	a5,0xd0000
100000d8:	0387a683          	lw	a3,56(a5) # d0000038 <__stack_top+0xaffff038>
100000dc:	d00007b7          	lui	a5,0xd0000
100000e0:	02000737          	lui	a4,0x2000
100000e4:	00e6e733          	or	a4,a3,a4
100000e8:	02e7ac23          	sw	a4,56(a5) # d0000038 <__stack_top+0xaffff038>
100000ec:	400387b7          	lui	a5,0x40038
100000f0:	0687a703          	lw	a4,104(a5) # 40038068 <__stack_top+0x20037068>
100000f4:	eff77713          	andi	a4,a4,-257
100000f8:	06e7a423          	sw	a4,104(a5)
100000fc:	08000793          	li	a5,128
10000100:	3047a073          	csrs	mie,a5
10000104:	30046073          	csrsi	mstatus,8
10000108:	d00007b7          	lui	a5,0xd0000
1000010c:	1a47a703          	lw	a4,420(a5) # d00001a4 <__stack_top+0xaffff1a4>
10000110:	00276713          	ori	a4,a4,2
10000114:	1ae7a223          	sw	a4,420(a5)
10000118:	200007b7          	lui	a5,0x20000
1000011c:	0047a783          	lw	a5,4(a5) # 20000004 <__data_end+0x4>
10000120:	0007a703          	lw	a4,0(a5)
10000124:	0047a783          	lw	a5,4(a5)
10000128:	200006b7          	lui	a3,0x20000
1000012c:	0006a803          	lw	a6,0(a3) # 20000000 <__data_end>
10000130:	08f0d537          	lui	a0,0x8f0d
10000134:	18050513          	addi	a0,a0,384 # 8f0d180 <__flash_ini-0x70f2e80>
10000138:	00000593          	li	a1,0
1000013c:	00a70633          	add	a2,a4,a0
10000140:	00060893          	mv	a7,a2
10000144:	00e8b8b3          	sltu	a7,a7,a4
10000148:	00b786b3          	add	a3,a5,a1
1000014c:	00d887b3          	add	a5,a7,a3
10000150:	00078693          	mv	a3,a5
10000154:	00060713          	mv	a4,a2
10000158:	00068793          	mv	a5,a3
1000015c:	00e82023          	sw	a4,0(a6)
10000160:	00f82223          	sw	a5,4(a6)

10000164 <L10000134>:
10000164:	00000013          	nop
10000168:	ffdff06f          	j	10000164 <L10000134>

1000016c <Startup_InitCore>:
1000016c:	400187b7          	lui	a5,0x40018
10000170:	0047a683          	lw	a3,4(a5) # 40018004 <__stack_top+0x20017004>
10000174:	01000737          	lui	a4,0x1000
10000178:	00e6e733          	or	a4,a3,a4
1000017c:	00e7a223          	sw	a4,4(a5)
10000180:	00000013          	nop

10000184 <L10000508>:
10000184:	400187b7          	lui	a5,0x40018
10000188:	00c7a783          	lw	a5,12(a5) # 4001800c <__stack_top+0x2001700c>
1000018c:	0187d793          	srli	a5,a5,0x18
10000190:	0017f793          	andi	a5,a5,1
10000194:	0ff7f713          	zext.b	a4,a5
10000198:	00100793          	li	a5,1
1000019c:	fef704e3          	beq	a4,a5,10000184 <L10000508>
100001a0:	400187b7          	lui	a5,0x40018
100001a4:	0047a683          	lw	a3,4(a5) # 40018004 <__stack_top+0x20017004>
100001a8:	ff000737          	lui	a4,0xff000
100001ac:	fff70713          	addi	a4,a4,-1 # feffffff <__stack_top+0xdeffefff>
100001b0:	00e6f733          	and	a4,a3,a4
100001b4:	00e7a223          	sw	a4,4(a5)
100001b8:	00000013          	nop

100001bc <L10000540>:
100001bc:	400187b7          	lui	a5,0x40018
100001c0:	00c7a783          	lw	a5,12(a5) # 4001800c <__stack_top+0x2001700c>
100001c4:	0187d793          	srli	a5,a5,0x18
100001c8:	0017f793          	andi	a5,a5,1
100001cc:	0ff7f713          	zext.b	a4,a5
100001d0:	00100793          	li	a5,1
100001d4:	fef714e3          	bne	a4,a5,100001bc <L10000540>
100001d8:	400207b7          	lui	a5,0x40020
100001dc:	0007a703          	lw	a4,0(a5) # 40020000 <__stack_top+0x2001f000>
100001e0:	04076713          	ori	a4,a4,64
100001e4:	00e7a023          	sw	a4,0(a5)
100001e8:	400207b7          	lui	a5,0x40020
100001ec:	0007a703          	lw	a4,0(a5) # 40020000 <__stack_top+0x2001f000>
100001f0:	20076713          	ori	a4,a4,512
100001f4:	00e7a023          	sw	a4,0(a5)
100001f8:	00000013          	nop

100001fc <L10000580>:
100001fc:	400207b7          	lui	a5,0x40020
10000200:	0087a783          	lw	a5,8(a5) # 40020008 <__stack_top+0x2001f008>
10000204:	0067d793          	srli	a5,a5,0x6
10000208:	0017f793          	andi	a5,a5,1
1000020c:	0ff7f713          	zext.b	a4,a5
10000210:	00100793          	li	a5,1
10000214:	fef704e3          	beq	a4,a5,100001fc <L10000580>
10000218:	400207b7          	lui	a5,0x40020
1000021c:	0087a783          	lw	a5,8(a5) # 40020008 <__stack_top+0x2001f008>
10000220:	0097d793          	srli	a5,a5,0x9
10000224:	0017f793          	andi	a5,a5,1
10000228:	0ff7f713          	zext.b	a4,a5
1000022c:	00100793          	li	a5,1
10000230:	fcf706e3          	beq	a4,a5,100001fc <L10000580>
10000234:	400207b7          	lui	a5,0x40020
10000238:	0007a703          	lw	a4,0(a5) # 40020000 <__stack_top+0x2001f000>
1000023c:	fbf77713          	andi	a4,a4,-65
10000240:	00e7a023          	sw	a4,0(a5)
10000244:	400207b7          	lui	a5,0x40020
10000248:	0007a703          	lw	a4,0(a5) # 40020000 <__stack_top+0x2001f000>
1000024c:	dff77713          	andi	a4,a4,-513
10000250:	00e7a023          	sw	a4,0(a5)
10000254:	00000013          	nop

10000258 <L100005DC>:
10000258:	400207b7          	lui	a5,0x40020
1000025c:	0087a783          	lw	a5,8(a5) # 40020008 <__stack_top+0x2001f008>
10000260:	0067d793          	srli	a5,a5,0x6
10000264:	0017f793          	andi	a5,a5,1
10000268:	0ff7f793          	zext.b	a5,a5
1000026c:	fe0786e3          	beqz	a5,10000258 <L100005DC>
10000270:	400207b7          	lui	a5,0x40020
10000274:	0087a783          	lw	a5,8(a5) # 40020008 <__stack_top+0x2001f008>
10000278:	0097d793          	srli	a5,a5,0x9
1000027c:	0017f793          	andi	a5,a5,1
10000280:	0ff7f793          	zext.b	a5,a5
10000284:	fc078ae3          	beqz	a5,10000258 <L100005DC>
10000288:	00000013          	nop
1000028c:	00000013          	nop
10000290:	00008067          	ret

10000294 <Startup_InitSystemClock>:
10000294:	400487b7          	lui	a5,0x40048
10000298:	00c7a683          	lw	a3,12(a5) # 4004800c <__stack_top+0x2004700c>
1000029c:	fff00737          	lui	a4,0xfff00
100002a0:	fff70713          	addi	a4,a4,-1 # ffefffff <__stack_top+0xdfefefff>
100002a4:	00e6f733          	and	a4,a3,a4
100002a8:	00e7a623          	sw	a4,12(a5)
100002ac:	400487b7          	lui	a5,0x40048
100002b0:	00c7a683          	lw	a3,12(a5) # 4004800c <__stack_top+0x2004700c>
100002b4:	ffffc737          	lui	a4,0xffffc
100002b8:	00e6f733          	and	a4,a3,a4
100002bc:	02f76713          	ori	a4,a4,47
100002c0:	00e7a623          	sw	a4,12(a5)
100002c4:	400487b7          	lui	a5,0x40048
100002c8:	0047a783          	lw	a5,4(a5) # 40048004 <__stack_top+0x20047004>
100002cc:	0037f793          	andi	a5,a5,3
100002d0:	0ff7f713          	zext.b	a4,a5
100002d4:	400487b7          	lui	a5,0x40048
100002d8:	00070693          	mv	a3,a4
100002dc:	00001737          	lui	a4,0x1
100002e0:	fff70713          	addi	a4,a4,-1 # fff <__flash_ini-0xffff001>
100002e4:	00e6f733          	and	a4,a3,a4
100002e8:	01071693          	slli	a3,a4,0x10
100002ec:	0106d693          	srli	a3,a3,0x10
100002f0:	00001737          	lui	a4,0x1
100002f4:	fff70713          	addi	a4,a4,-1 # fff <__flash_ini-0xffff001>
100002f8:	00e6f733          	and	a4,a3,a4
100002fc:	0007a603          	lw	a2,0(a5) # 40048000 <__stack_top+0x20047000>
10000300:	fffff6b7          	lui	a3,0xfffff
10000304:	00d676b3          	and	a3,a2,a3
10000308:	00e6e733          	or	a4,a3,a4
1000030c:	00e7a023          	sw	a4,0(a5)
10000310:	400487b7          	lui	a5,0x40048
10000314:	0007a683          	lw	a3,0(a5) # 40048000 <__stack_top+0x20047000>
10000318:	ff001737          	lui	a4,0xff001
1000031c:	fff70713          	addi	a4,a4,-1 # ff000fff <__stack_top+0xdeffffff>
10000320:	00e6f6b3          	and	a3,a3,a4
10000324:	00fab737          	lui	a4,0xfab
10000328:	00e6e733          	or	a4,a3,a4
1000032c:	00e7a023          	sw	a4,0(a5)
10000330:	00000013          	nop

10000334 <L10000290>:
10000334:	400487b7          	lui	a5,0x40048
10000338:	0047a783          	lw	a5,4(a5) # 40048004 <__stack_top+0x20047004>
1000033c:	01f7d793          	srli	a5,a5,0x1f
10000340:	0ff7f713          	zext.b	a4,a5
10000344:	00100793          	li	a5,1
10000348:	fef716e3          	bne	a4,a5,10000334 <L10000290>
1000034c:	400107b7          	lui	a5,0x40010
10000350:	0307a703          	lw	a4,48(a5) # 40010030 <__stack_top+0x2000f030>
10000354:	ffc77713          	andi	a4,a4,-4
10000358:	00276713          	ori	a4,a4,2
1000035c:	02e7a823          	sw	a4,48(a5)
10000360:	00000013          	nop

10000364 <L100002c0>:
10000364:	400107b7          	lui	a5,0x40010
10000368:	0387a703          	lw	a4,56(a5) # 40010038 <__stack_top+0x2000f038>
1000036c:	00400793          	li	a5,4
10000370:	fef71ae3          	bne	a4,a5,10000364 <L100002c0>
10000374:	00000013          	nop

10000378 <L100002d4>:
10000378:	400107b7          	lui	a5,0x40010
1000037c:	0367c783          	lbu	a5,54(a5) # 40010036 <__stack_top+0x2000f036>
10000380:	0ff7f713          	zext.b	a4,a5
10000384:	00100793          	li	a5,1
10000388:	fef718e3          	bne	a4,a5,10000378 <L100002d4>
1000038c:	400207b7          	lui	a5,0x40020
10000390:	0007a683          	lw	a3,0(a5) # 40020000 <__stack_top+0x2001f000>
10000394:	ffffc737          	lui	a4,0xffffc
10000398:	fff70713          	addi	a4,a4,-1 # ffffbfff <__stack_top+0xdfffafff>
1000039c:	00e6f733          	and	a4,a3,a4
100003a0:	00e7a023          	sw	a4,0(a5)
100003a4:	00000013          	nop

100003a8 <L10000304>:
100003a8:	400207b7          	lui	a5,0x40020
100003ac:	0087a783          	lw	a5,8(a5) # 40020008 <__stack_top+0x2001f008>
100003b0:	00e7d793          	srli	a5,a5,0xe
100003b4:	0017f793          	andi	a5,a5,1
100003b8:	0ff7f713          	zext.b	a4,a5
100003bc:	00100793          	li	a5,1
100003c0:	fef714e3          	bne	a4,a5,100003a8 <L10000304>
100003c4:	400507b7          	lui	a5,0x40050
100003c8:	0007a703          	lw	a4,0(a5) # 40050000 <__stack_top+0x2004f000>
100003cc:	fc077713          	andi	a4,a4,-64
100003d0:	00176713          	ori	a4,a4,1
100003d4:	00e7a023          	sw	a4,0(a5)
100003d8:	400507b7          	lui	a5,0x40050
100003dc:	0087a683          	lw	a3,8(a5) # 40050008 <__stack_top+0x2004f008>
100003e0:	fffff737          	lui	a4,0xfffff
100003e4:	00e6f733          	and	a4,a3,a4
100003e8:	07d76713          	ori	a4,a4,125
100003ec:	00e7a423          	sw	a4,8(a5)
100003f0:	400507b7          	lui	a5,0x40050
100003f4:	00c7a683          	lw	a3,12(a5) # 4005000c <__stack_top+0x2004f00c>
100003f8:	fff90737          	lui	a4,0xfff90
100003fc:	fff70713          	addi	a4,a4,-1 # fff8ffff <__stack_top+0xdff8efff>
10000400:	00e6f6b3          	and	a3,a3,a4
10000404:	00050737          	lui	a4,0x50
10000408:	00e6e733          	or	a4,a3,a4
1000040c:	00e7a623          	sw	a4,12(a5)
10000410:	400507b7          	lui	a5,0x40050
10000414:	00c7a683          	lw	a3,12(a5) # 4005000c <__stack_top+0x2004f00c>
10000418:	ffff9737          	lui	a4,0xffff9
1000041c:	fff70713          	addi	a4,a4,-1 # ffff8fff <__stack_top+0xdfff7fff>
10000420:	00e6f6b3          	and	a3,a3,a4
10000424:	00002737          	lui	a4,0x2
10000428:	00e6e733          	or	a4,a3,a4
1000042c:	00e7a623          	sw	a4,12(a5)
10000430:	400507b7          	lui	a5,0x40050
10000434:	0047a703          	lw	a4,4(a5) # 40050004 <__stack_top+0x2004f004>
10000438:	ffe77713          	andi	a4,a4,-2
1000043c:	00e7a223          	sw	a4,4(a5)
10000440:	400507b7          	lui	a5,0x40050
10000444:	0047a703          	lw	a4,4(a5) # 40050004 <__stack_top+0x2004f004>
10000448:	fdf77713          	andi	a4,a4,-33
1000044c:	00e7a223          	sw	a4,4(a5)
10000450:	400507b7          	lui	a5,0x40050
10000454:	0047a703          	lw	a4,4(a5) # 40050004 <__stack_top+0x2004f004>
10000458:	ff777713          	andi	a4,a4,-9
1000045c:	00e7a223          	sw	a4,4(a5)
10000460:	00000013          	nop

10000464 <L100003c0>:
10000464:	400507b7          	lui	a5,0x40050
10000468:	0007a783          	lw	a5,0(a5) # 40050000 <__stack_top+0x2004f000>
1000046c:	01f7d793          	srli	a5,a5,0x1f
10000470:	0ff7f713          	zext.b	a4,a5
10000474:	00100793          	li	a5,1
10000478:	fef716e3          	bne	a4,a5,10000464 <L100003c0>
1000047c:	400107b7          	lui	a5,0x40010
10000480:	0407a703          	lw	a4,64(a5) # 40010040 <__stack_top+0x2000f040>
10000484:	000107b7          	lui	a5,0x10

10000488 <L100003e4>:
10000488:	00f70063          	beq	a4,a5,10000488 <L100003e4>
1000048c:	400107b7          	lui	a5,0x40010
10000490:	00010737          	lui	a4,0x10
10000494:	04e7a023          	sw	a4,64(a5) # 40010040 <__stack_top+0x2000f040>
10000498:	400107b7          	lui	a5,0x40010
1000049c:	03c7a703          	lw	a4,60(a5) # 4001003c <__stack_top+0x2000f03c>
100004a0:	f1f77713          	andi	a4,a4,-225
100004a4:	02e7ae23          	sw	a4,60(a5)
100004a8:	400107b7          	lui	a5,0x40010
100004ac:	03c7a703          	lw	a4,60(a5) # 4001003c <__stack_top+0x2000f03c>
100004b0:	00176713          	ori	a4,a4,1
100004b4:	02e7ae23          	sw	a4,60(a5)
100004b8:	00000013          	nop

100004bc <L10000418>:
100004bc:	400107b7          	lui	a5,0x40010
100004c0:	0447a783          	lw	a5,68(a5) # 40010044 <__stack_top+0x2000f044>
100004c4:	0037f793          	andi	a5,a5,3
100004c8:	0ff7f713          	zext.b	a4,a5
100004cc:	00200793          	li	a5,2
100004d0:	fef716e3          	bne	a4,a5,100004bc <L10000418>
100004d4:	400107b7          	lui	a5,0x40010
100004d8:	0487a683          	lw	a3,72(a5) # 40010048 <__stack_top+0x2000f048>
100004dc:	00001737          	lui	a4,0x1
100004e0:	80070713          	addi	a4,a4,-2048 # 800 <__flash_ini-0xffff800>
100004e4:	00e6e733          	or	a4,a3,a4
100004e8:	04e7a423          	sw	a4,72(a5)
100004ec:	400207b7          	lui	a5,0x40020
100004f0:	0007a703          	lw	a4,0(a5) # 40020000 <__stack_top+0x2001f000>
100004f4:	fbf77713          	andi	a4,a4,-65
100004f8:	00e7a023          	sw	a4,0(a5)
100004fc:	00000013          	nop

10000500 <L1000045c>:
10000500:	400207b7          	lui	a5,0x40020
10000504:	0087a783          	lw	a5,8(a5) # 40020008 <__stack_top+0x2001f008>
10000508:	0067d793          	srli	a5,a5,0x6
1000050c:	0017f793          	andi	a5,a5,1
10000510:	0ff7f713          	zext.b	a4,a5
10000514:	00100793          	li	a5,1
10000518:	fef714e3          	bne	a4,a5,10000500 <L1000045c>
1000051c:	00000013          	nop
10000520:	00000013          	nop
10000524:	00008067          	ret

10000528 <Startup_InitRam>:
10000528:	ff010113          	addi	sp,sp,-16
1000052c:	00012623          	sw	zero,12(sp)
10000530:	00012423          	sw	zero,8(sp)

10000534 <L100008c0>:
10000534:	0680006f          	j	1000059c <L10000928>

10000538 <L100008c4>:
10000538:	00012223          	sw	zero,4(sp)
1000053c:	0340006f          	j	10000570 <L100008fc>

10000540 <L100008cc>:
10000540:	00c12783          	lw	a5,12(sp)
10000544:	00379713          	slli	a4,a5,0x3
10000548:	100017b7          	lui	a5,0x10001
1000054c:	e0078793          	addi	a5,a5,-512 # 10000e00 <__flash_end+0x594>
10000550:	00f707b3          	add	a5,a4,a5
10000554:	0007a703          	lw	a4,0(a5)
10000558:	00412783          	lw	a5,4(sp)
1000055c:	00f707b3          	add	a5,a4,a5
10000560:	00078023          	sb	zero,0(a5)
10000564:	00412783          	lw	a5,4(sp)
10000568:	00178793          	addi	a5,a5,1
1000056c:	00f12223          	sw	a5,4(sp)

10000570 <L100008fc>:
10000570:	00c12783          	lw	a5,12(sp)
10000574:	00379713          	slli	a4,a5,0x3
10000578:	100017b7          	lui	a5,0x10001
1000057c:	e0078793          	addi	a5,a5,-512 # 10000e00 <__flash_end+0x594>
10000580:	00f707b3          	add	a5,a4,a5
10000584:	0047a783          	lw	a5,4(a5)
10000588:	00412703          	lw	a4,4(sp)
1000058c:	faf76ae3          	bltu	a4,a5,10000540 <L100008cc>
10000590:	00c12783          	lw	a5,12(sp)
10000594:	00178793          	addi	a5,a5,1
10000598:	00f12623          	sw	a5,12(sp)

1000059c <L10000928>:
1000059c:	00c12783          	lw	a5,12(sp)
100005a0:	00379713          	slli	a4,a5,0x3
100005a4:	100017b7          	lui	a5,0x10001
100005a8:	e0078793          	addi	a5,a5,-512 # 10000e00 <__flash_end+0x594>
100005ac:	00f707b3          	add	a5,a4,a5
100005b0:	0007a703          	lw	a4,0(a5)
100005b4:	fff00793          	li	a5,-1
100005b8:	0ef70663          	beq	a4,a5,100006a4 <L10000a30>
100005bc:	00c12783          	lw	a5,12(sp)
100005c0:	00379713          	slli	a4,a5,0x3
100005c4:	100017b7          	lui	a5,0x10001
100005c8:	e0078793          	addi	a5,a5,-512 # 10000e00 <__flash_end+0x594>
100005cc:	00f707b3          	add	a5,a4,a5
100005d0:	0047a703          	lw	a4,4(a5)
100005d4:	fff00793          	li	a5,-1
100005d8:	f6f710e3          	bne	a4,a5,10000538 <L100008c4>
100005dc:	0c80006f          	j	100006a4 <L10000a30>

100005e0 <L1000096c>:
100005e0:	00012023          	sw	zero,0(sp)
100005e4:	0840006f          	j	10000668 <L100009f4>

100005e8 <L10000974>:
100005e8:	00812703          	lw	a4,8(sp)
100005ec:	00070793          	mv	a5,a4
100005f0:	00179793          	slli	a5,a5,0x1
100005f4:	00e787b3          	add	a5,a5,a4
100005f8:	00279793          	slli	a5,a5,0x2
100005fc:	00078713          	mv	a4,a5
10000600:	100017b7          	lui	a5,0x10001
10000604:	e1078793          	addi	a5,a5,-496 # 10000e10 <__flash_end+0x5a4>
10000608:	00f707b3          	add	a5,a4,a5
1000060c:	0007a703          	lw	a4,0(a5)
10000610:	00012783          	lw	a5,0(sp)
10000614:	00f707b3          	add	a5,a4,a5
10000618:	00078693          	mv	a3,a5
1000061c:	00812703          	lw	a4,8(sp)
10000620:	00070793          	mv	a5,a4
10000624:	00179793          	slli	a5,a5,0x1
10000628:	00e787b3          	add	a5,a5,a4
1000062c:	00279793          	slli	a5,a5,0x2
10000630:	00078713          	mv	a4,a5
10000634:	100017b7          	lui	a5,0x10001
10000638:	e1078793          	addi	a5,a5,-496 # 10000e10 <__flash_end+0x5a4>
1000063c:	00f707b3          	add	a5,a4,a5
10000640:	0047a703          	lw	a4,4(a5)
10000644:	00012783          	lw	a5,0(sp)
10000648:	00f707b3          	add	a5,a4,a5
1000064c:	00078713          	mv	a4,a5
10000650:	0006c783          	lbu	a5,0(a3) # fffff000 <__stack_top+0xdfffe000>
10000654:	0ff7f793          	zext.b	a5,a5
10000658:	00f70023          	sb	a5,0(a4)
1000065c:	00012783          	lw	a5,0(sp)
10000660:	00178793          	addi	a5,a5,1
10000664:	00f12023          	sw	a5,0(sp)

10000668 <L100009f4>:
10000668:	00812703          	lw	a4,8(sp)
1000066c:	00070793          	mv	a5,a4
10000670:	00179793          	slli	a5,a5,0x1
10000674:	00e787b3          	add	a5,a5,a4
10000678:	00279793          	slli	a5,a5,0x2
1000067c:	00078713          	mv	a4,a5
10000680:	100017b7          	lui	a5,0x10001
10000684:	e1078793          	addi	a5,a5,-496 # 10000e10 <__flash_end+0x5a4>
10000688:	00f707b3          	add	a5,a4,a5
1000068c:	0087a783          	lw	a5,8(a5)
10000690:	00012703          	lw	a4,0(sp)
10000694:	f4f76ae3          	bltu	a4,a5,100005e8 <L10000974>
10000698:	00812783          	lw	a5,8(sp)
1000069c:	00178793          	addi	a5,a5,1
100006a0:	00f12423          	sw	a5,8(sp)

100006a4 <L10000a30>:
100006a4:	00812703          	lw	a4,8(sp)
100006a8:	00070793          	mv	a5,a4
100006ac:	00179793          	slli	a5,a5,0x1
100006b0:	00e787b3          	add	a5,a5,a4
100006b4:	00279793          	slli	a5,a5,0x2
100006b8:	00078713          	mv	a4,a5
100006bc:	100017b7          	lui	a5,0x10001
100006c0:	e1078793          	addi	a5,a5,-496 # 10000e10 <__flash_end+0x5a4>
100006c4:	00f707b3          	add	a5,a4,a5
100006c8:	0007a703          	lw	a4,0(a5)
100006cc:	fff00793          	li	a5,-1
100006d0:	06f70263          	beq	a4,a5,10000734 <L10000ac0>
100006d4:	00812703          	lw	a4,8(sp)
100006d8:	00070793          	mv	a5,a4
100006dc:	00179793          	slli	a5,a5,0x1
100006e0:	00e787b3          	add	a5,a5,a4
100006e4:	00279793          	slli	a5,a5,0x2
100006e8:	00078713          	mv	a4,a5
100006ec:	100017b7          	lui	a5,0x10001
100006f0:	e1078793          	addi	a5,a5,-496 # 10000e10 <__flash_end+0x5a4>
100006f4:	00f707b3          	add	a5,a4,a5
100006f8:	0047a703          	lw	a4,4(a5)
100006fc:	fff00793          	li	a5,-1
10000700:	02f70a63          	beq	a4,a5,10000734 <L10000ac0>
10000704:	00812703          	lw	a4,8(sp)
10000708:	00070793          	mv	a5,a4
1000070c:	00179793          	slli	a5,a5,0x1
10000710:	00e787b3          	add	a5,a5,a4
10000714:	00279793          	slli	a5,a5,0x2
10000718:	00078713          	mv	a4,a5
1000071c:	100017b7          	lui	a5,0x10001
10000720:	e1078793          	addi	a5,a5,-496 # 10000e10 <__flash_end+0x5a4>
10000724:	00f707b3          	add	a5,a4,a5
10000728:	0087a703          	lw	a4,8(a5)
1000072c:	fff00793          	li	a5,-1
10000730:	eaf718e3          	bne	a4,a5,100005e0 <L1000096c>

10000734 <L10000ac0>:
10000734:	00000013          	nop
10000738:	01010113          	addi	sp,sp,16
1000073c:	00008067          	ret

10000740 <Startup_InitCtors>:
10000740:	fe010113          	addi	sp,sp,-32
10000744:	00112e23          	sw	ra,28(sp)
10000748:	00012623          	sw	zero,12(sp)
1000074c:	0280006f          	j	10000774 <L10000b00>

10000750 <L10000adc>:
10000750:	00c12783          	lw	a5,12(sp)
10000754:	00178713          	addi	a4,a5,1
10000758:	00e12623          	sw	a4,12(sp)
1000075c:	00279713          	slli	a4,a5,0x2
10000760:	100017b7          	lui	a5,0x10001
10000764:	df878793          	addi	a5,a5,-520 # 10000df8 <__flash_end+0x58c>
10000768:	00f707b3          	add	a5,a4,a5
1000076c:	0007a783          	lw	a5,0(a5)
10000770:	000780e7          	jalr	a5

10000774 <L10000b00>:
10000774:	00c12783          	lw	a5,12(sp)
10000778:	00279713          	slli	a4,a5,0x2
1000077c:	100017b7          	lui	a5,0x10001
10000780:	df878793          	addi	a5,a5,-520 # 10000df8 <__flash_end+0x58c>
10000784:	00f707b3          	add	a5,a4,a5
10000788:	0007a703          	lw	a4,0(a5)
1000078c:	fff00793          	li	a5,-1
10000790:	fcf710e3          	bne	a4,a5,10000750 <L10000adc>
10000794:	00000013          	nop
10000798:	00000013          	nop
1000079c:	01c12083          	lw	ra,28(sp)
100007a0:	02010113          	addi	sp,sp,32
100007a4:	00008067          	ret

100007a8 <Isr_MachineTimerInterrupt>:
100007a8:	fe010113          	addi	sp,sp,-32
100007ac:	00a12e23          	sw	a0,28(sp)
100007b0:	00b12c23          	sw	a1,24(sp)
100007b4:	00c12a23          	sw	a2,20(sp)
100007b8:	00d12823          	sw	a3,16(sp)
100007bc:	00e12623          	sw	a4,12(sp)
100007c0:	00f12423          	sw	a5,8(sp)
100007c4:	01012223          	sw	a6,4(sp)
100007c8:	01112023          	sw	a7,0(sp)
100007cc:	200007b7          	lui	a5,0x20000
100007d0:	0047a783          	lw	a5,4(a5) # 20000004 <__data_end+0x4>
100007d4:	0007a703          	lw	a4,0(a5)
100007d8:	0047a783          	lw	a5,4(a5)
100007dc:	200006b7          	lui	a3,0x20000
100007e0:	0006a803          	lw	a6,0(a3) # 20000000 <__data_end>
100007e4:	08f0d537          	lui	a0,0x8f0d
100007e8:	18050513          	addi	a0,a0,384 # 8f0d180 <__flash_ini-0x70f2e80>
100007ec:	00000593          	li	a1,0
100007f0:	00a70633          	add	a2,a4,a0
100007f4:	00060893          	mv	a7,a2
100007f8:	00e8b8b3          	sltu	a7,a7,a4
100007fc:	00b786b3          	add	a3,a5,a1
10000800:	00d887b3          	add	a5,a7,a3
10000804:	00078693          	mv	a3,a5
10000808:	00060713          	mv	a4,a2
1000080c:	00068793          	mv	a5,a3
10000810:	00e82023          	sw	a4,0(a6)
10000814:	00f82223          	sw	a5,4(a6)
10000818:	d00007b7          	lui	a5,0xd0000
1000081c:	0287a683          	lw	a3,40(a5) # d0000028 <__stack_top+0xaffff028>
10000820:	d00007b7          	lui	a5,0xd0000
10000824:	02000737          	lui	a4,0x2000
10000828:	00e6e733          	or	a4,a3,a4
1000082c:	02e7a423          	sw	a4,40(a5) # d0000028 <__stack_top+0xaffff028>
10000830:	00000013          	nop
10000834:	01c12503          	lw	a0,28(sp)
10000838:	01812583          	lw	a1,24(sp)
1000083c:	01412603          	lw	a2,20(sp)
10000840:	01012683          	lw	a3,16(sp)
10000844:	00c12703          	lw	a4,12(sp)
10000848:	00812783          	lw	a5,8(sp)
1000084c:	00412803          	lw	a6,4(sp)
10000850:	00012883          	lw	a7,0(sp)
10000854:	02010113          	addi	sp,sp,32
10000858:	30200073          	mret

1000085c <Isr_UndefinedHandler>:
1000085c:	0000006f          	j	1000085c <Isr_UndefinedHandler>

10000860 <AllExceptionsHandler>:
10000860:	0000006f          	j	10000860 <AllExceptionsHandler>

10000864 <Isr_MachineSoftwareInterrupt>:
10000864:	0000006f          	j	10000864 <Isr_MachineSoftwareInterrupt>

10000868 <Isr_MachineExternalInterrupt>:
10000868:	0000006f          	j	10000868 <Isr_MachineExternalInterrupt>
